; ModuleID = '10/2070.c'
source_filename = "10/2070.c"
target datalayout = "e-m:e-p270:32:32-p271:32:32-p272:64:64-i64:64-f80:128-n8:16:32:64-S128"
target triple = "x86_64-pc-linux-gnu"

@.str = private unnamed_addr constant [3 x i8] c"%d\00", align 1
@a = common dso_local global [26 x i32] zeroinitializer, align 16

; Function Attrs: noinline nounwind uwtable
define dso_local i32 @main() #0 {
  %1 = alloca i32, align 4
  %2 = alloca i32, align 4
  %3 = alloca i32, align 4
  %4 = alloca i32, align 4
  store i32 0, i32* %1, align 4
  %5 = call i32 (i8*, ...) @__isoc99_scanf(i8* getelementptr inbounds ([3 x i8], [3 x i8]* @.str, i64 0, i64 0), i32* %4)
  store i32 1, i32* %3, align 4
  br label %6

6:                                                ; preds = %15, %0
  %7 = load i32, i32* %3, align 4
  %8 = load i32, i32* %4, align 4
  %9 = icmp sle i32 %7, %8
  br i1 %9, label %10, label %18

10:                                               ; preds = %6
  %11 = load i32, i32* %3, align 4
  %12 = sext i32 %11 to i64
  %13 = getelementptr inbounds [26 x i32], [26 x i32]* @a, i64 0, i64 %12
  %14 = call i32 (i8*, ...) @__isoc99_scanf(i8* getelementptr inbounds ([3 x i8], [3 x i8]* @.str, i64 0, i64 0), i32* %13)
  br label %15

15:                                               ; preds = %10
  %16 = load i32, i32* %3, align 4
  %17 = add nsw i32 %16, 1
  store i32 %17, i32* %3, align 4
  br label %6

18:                                               ; preds = %6
  %19 = load i32, i32* %4, align 4
  %20 = call i32 @d(i32 10000, i32 1, i32 %19)
  store i32 %20, i32* %2, align 4
  %21 = load i32, i32* %2, align 4
  %22 = call i32 (i8*, ...) @printf(i8* getelementptr inbounds ([3 x i8], [3 x i8]* @.str, i64 0, i64 0), i32 %21)
  %23 = load i32, i32* %1, align 4
  ret i32 %23
}

declare dso_local i32 @__isoc99_scanf(i8*, ...) #1

; Function Attrs: noinline nounwind uwtable
define dso_local i32 @d(i32 %0, i32 %1, i32 %2) #0 {
  %4 = alloca i32, align 4
  %5 = alloca i32, align 4
  %6 = alloca i32, align 4
  %7 = alloca i32, align 4
  %8 = alloca i32, align 4
  %9 = alloca i32, align 4
  store i32 %0, i32* %5, align 4
  store i32 %1, i32* %6, align 4
  store i32 %2, i32* %7, align 4
  %10 = load i32, i32* %6, align 4
  %11 = load i32, i32* %7, align 4
  %12 = icmp eq i32 %10, %11
  br i1 %12, label %13, label %21

13:                                               ; preds = %3
  %14 = load i32, i32* %6, align 4
  %15 = sext i32 %14 to i64
  %16 = getelementptr inbounds [26 x i32], [26 x i32]* @a, i64 0, i64 %15
  %17 = load i32, i32* %16, align 4
  %18 = load i32, i32* %5, align 4
  %19 = icmp sle i32 %17, %18
  br i1 %19, label %20, label %21

20:                                               ; preds = %13
  store i32 1, i32* %4, align 4
  br label %68

21:                                               ; preds = %13, %3
  %22 = load i32, i32* %6, align 4
  %23 = load i32, i32* %7, align 4
  %24 = icmp eq i32 %22, %23
  br i1 %24, label %25, label %33

25:                                               ; preds = %21
  %26 = load i32, i32* %6, align 4
  %27 = sext i32 %26 to i64
  %28 = getelementptr inbounds [26 x i32], [26 x i32]* @a, i64 0, i64 %27
  %29 = load i32, i32* %28, align 4
  %30 = load i32, i32* %5, align 4
  %31 = icmp sgt i32 %29, %30
  br i1 %31, label %32, label %33

32:                                               ; preds = %25
  store i32 0, i32* %4, align 4
  br label %68

33:                                               ; preds = %25, %21
  %34 = load i32, i32* %5, align 4
  %35 = load i32, i32* %6, align 4
  %36 = sext i32 %35 to i64
  %37 = getelementptr inbounds [26 x i32], [26 x i32]* @a, i64 0, i64 %36
  %38 = load i32, i32* %37, align 4
  %39 = icmp slt i32 %34, %38
  br i1 %39, label %40, label %46

40:                                               ; preds = %33
  %41 = load i32, i32* %5, align 4
  %42 = load i32, i32* %6, align 4
  %43 = add nsw i32 %42, 1
  %44 = load i32, i32* %7, align 4
  %45 = call i32 @d(i32 %41, i32 %43, i32 %44)
  store i32 %45, i32* %4, align 4
  br label %68

46:                                               ; preds = %33
  %47 = load i32, i32* %6, align 4
  %48 = sext i32 %47 to i64
  %49 = getelementptr inbounds [26 x i32], [26 x i32]* @a, i64 0, i64 %48
  %50 = load i32, i32* %49, align 4
  %51 = load i32, i32* %6, align 4
  %52 = add nsw i32 %51, 1
  %53 = load i32, i32* %7, align 4
  %54 = call i32 @d(i32 %50, i32 %52, i32 %53)
  %55 = add nsw i32 1, %54
  store i32 %55, i32* %8, align 4
  %56 = load i32, i32* %5, align 4
  %57 = load i32, i32* %6, align 4
  %58 = add nsw i32 %57, 1
  %59 = load i32, i32* %7, align 4
  %60 = call i32 @d(i32 %56, i32 %58, i32 %59)
  store i32 %60, i32* %9, align 4
  %61 = load i32, i32* %8, align 4
  %62 = load i32, i32* %9, align 4
  %63 = icmp sgt i32 %61, %62
  br i1 %63, label %64, label %66

64:                                               ; preds = %46
  %65 = load i32, i32* %8, align 4
  store i32 %65, i32* %4, align 4
  br label %68

66:                                               ; preds = %46
  %67 = load i32, i32* %9, align 4
  store i32 %67, i32* %4, align 4
  br label %68

68:                                               ; preds = %66, %64, %40, %32, %20
  %69 = load i32, i32* %4, align 4
  ret i32 %69
}

declare dso_local i32 @printf(i8*, ...) #1


!llvm.module.flags = !{!0}
!llvm.ident = !{!1}

!0 = !{i32 1, !"wchar_size", i32 4}
!1 = !{!"clang version 10.0.0-4ubuntu1 "}
