; ModuleID = 'source-C-CXX/9/2070.c'
source_filename = "source-C-CXX/9/2070.c"
target datalayout = "e-m:e-p270:32:32-p271:32:32-p272:64:64-i64:64-f80:128-n8:16:32:64-S128"
target triple = "x86_64-pc-linux-gnu"

@.str = private unnamed_addr constant [3 x i8] c"%d\00", align 1
@a = dso_local global [26 x i32] zeroinitializer, align 16

; Function Attrs: nofree nounwind sspstrong uwtable
define dso_local i32 @main() local_unnamed_addr #0 {
  %1 = alloca i32, align 4
  %2 = bitcast i32* %1 to i8*
  call void @llvm.lifetime.start.p0i8(i64 4, i8* nonnull %2) #4
  %3 = call i32 (i8*, ...) @__isoc99_scanf(i8* getelementptr inbounds ([3 x i8], [3 x i8]* @.str, i64 0, i64 0), i32* nonnull %1)
  %4 = load i32, i32* %1, align 4, !tbaa !5
  %5 = icmp slt i32 %4, 1
  br i1 %5, label %14, label %6

6:                                                ; preds = %0, %6
  %7 = phi i64 [ %10, %6 ], [ 1, %0 ]
  %8 = getelementptr inbounds [26 x i32], [26 x i32]* @a, i64 0, i64 %7
  %9 = call i32 (i8*, ...) @__isoc99_scanf(i8* getelementptr inbounds ([3 x i8], [3 x i8]* @.str, i64 0, i64 0), i32* nonnull %8)
  %10 = add nuw nsw i64 %7, 1
  %11 = load i32, i32* %1, align 4, !tbaa !5
  %12 = sext i32 %11 to i64
  %13 = icmp slt i64 %7, %12
  br i1 %13, label %6, label %14, !llvm.loop !9

14:                                               ; preds = %6, %0
  %15 = phi i32 [ %4, %0 ], [ %11, %6 ]
  %16 = call i32 @d(i32 10000, i32 1, i32 %15)
  %17 = call i32 (i8*, ...) @printf(i8* nonnull dereferenceable(1) getelementptr inbounds ([3 x i8], [3 x i8]* @.str, i64 0, i64 0), i32 %16)
  call void @llvm.lifetime.end.p0i8(i64 4, i8* nonnull %2) #4
  ret i32 0
}

; Function Attrs: argmemonly mustprogress nofree nosync nounwind willreturn
declare void @llvm.lifetime.start.p0i8(i64 immarg, i8* nocapture) #1

; Function Attrs: nofree nounwind
declare noundef i32 @__isoc99_scanf(i8* nocapture noundef readonly, ...) local_unnamed_addr #2

; Function Attrs: nofree nosync nounwind readonly sspstrong uwtable
define dso_local i32 @d(i32 %0, i32 %1, i32 %2) local_unnamed_addr #3 {
  %4 = icmp eq i32 %1, %2
  br i1 %4, label %7, label %5

5:                                                ; preds = %3
  %6 = sext i32 %1 to i64
  br label %14

7:                                                ; preds = %19, %3
  %8 = phi i32 [ %1, %3 ], [ %2, %19 ]
  %9 = sext i32 %8 to i64
  %10 = getelementptr inbounds [26 x i32], [26 x i32]* @a, i64 0, i64 %9
  %11 = load i32, i32* %10, align 4, !tbaa !5
  %12 = icmp sle i32 %11, %0
  %13 = zext i1 %12 to i32
  br label %23

14:                                               ; preds = %5, %19
  %15 = phi i64 [ %6, %5 ], [ %20, %19 ]
  %16 = getelementptr inbounds [26 x i32], [26 x i32]* @a, i64 0, i64 %15
  %17 = load i32, i32* %16, align 4, !tbaa !5
  %18 = icmp sgt i32 %17, %0
  br i1 %18, label %19, label %25

19:                                               ; preds = %14
  %20 = add nsw i64 %15, 1
  %21 = trunc i64 %20 to i32
  %22 = icmp eq i32 %21, %2
  br i1 %22, label %7, label %14

23:                                               ; preds = %7, %25
  %24 = phi i32 [ %32, %25 ], [ %13, %7 ]
  ret i32 %24

25:                                               ; preds = %14
  %26 = trunc i64 %15 to i32
  %27 = add nsw i32 %26, 1
  %28 = tail call i32 @d(i32 %17, i32 %27, i32 %2)
  %29 = tail call i32 @d(i32 %0, i32 %27, i32 %2)
  %30 = icmp slt i32 %28, %29
  %31 = add nsw i32 %28, 1
  %32 = select i1 %30, i32 %29, i32 %31
  br label %23
}

; Function Attrs: nofree nounwind
declare noundef i32 @printf(i8* nocapture noundef readonly, ...) local_unnamed_addr #2

; Function Attrs: argmemonly mustprogress nofree nosync nounwind willreturn
declare void @llvm.lifetime.end.p0i8(i64 immarg, i8* nocapture) #1


!llvm.module.flags = !{!0, !1, !2, !3}
!llvm.ident = !{!4}

!0 = !{i32 1, !"wchar_size", i32 4}
!1 = !{i32 7, !"PIC Level", i32 2}
!2 = !{i32 7, !"PIE Level", i32 2}
!3 = !{i32 7, !"uwtable", i32 1}
!4 = !{!"clang version 13.0.0"}
!5 = !{!6, !6, i64 0}
!6 = !{!"int", !7, i64 0}
!7 = !{!"omnipotent char", !8, i64 0}
!8 = !{!"Simple C/C++ TBAA"}
!9 = distinct !{!9, !10}
!10 = !{!"llvm.loop.mustprogress"}
